; ModuleID = 'bench/linux/original/nls_ascii.ll'
source_filename = "bench/linux/original/nls_ascii.ll"
target datalayout = "e-m:e-p270:32:32-p271:32:32-p272:64:64-i64:64-i128:128-f80:128-n8:16:32:64-S128"
target triple = "x86_64-unknown-linux-gnu"

module asm ".section\09\22.initcall6.init\22, \22a\22\09\09"
module asm "__initcall__kmod_nls_ascii__303_163_init_nls_ascii6:\09\09\09"
module asm ".long\09init_nls_ascii - .\09"
module asm ".previous\09\09\09\09\09"

%struct.nls_table = type { ptr, ptr, ptr, ptr, ptr, ptr, ptr, ptr }

@table = internal global %struct.nls_table { ptr @.str, ptr null, ptr @uni2char, ptr @char2uni, ptr @charset2lower, ptr @charset2upper, ptr null, ptr null }, align 8
@__UNIQUE_ID___addressable_init_nls_ascii304 = internal global ptr @init_nls_ascii, section ".discard.addressable", align 8
@__exitcall_exit_nls_ascii = internal global ptr @exit_nls_ascii, section ".exitcall.exit", align 8
@__UNIQUE_ID_file305 = internal constant [32 x i8] c"nls_ascii.file=fs/nls/nls_ascii\00", section ".modinfo", align 1
@__UNIQUE_ID_license306 = internal constant [31 x i8] c"nls_ascii.license=Dual BSD/GPL\00", section ".modinfo", align 1
@.str = private unnamed_addr constant [6 x i8] c"ascii\00", align 1
@page_uni2charset = internal unnamed_addr constant <{ ptr, [255 x ptr] }> <{ ptr @page00, [255 x ptr] zeroinitializer }>, align 16
@page00 = internal constant <{ [128 x i8], [128 x i8] }> <{ [128 x i8] c"\00\01\02\03\04\05\06\07\08\09\0A\0B\0C\0D\0E\0F\10\11\12\13\14\15\16\17\18\19\1A\1B\1C\1D\1E\1F !\22#$%&'()*+,-./0123456789:;<=>?@ABCDEFGHIJKLMNOPQRSTUVWXYZ[\\]^_`abcdefghijklmnopqrstuvwxyz{|}~\7F", [128 x i8] zeroinitializer }>, align 16
@charset2uni = internal unnamed_addr constant <{ [128 x i16], [128 x i16] }> <{ [128 x i16] [i16 0, i16 1, i16 2, i16 3, i16 4, i16 5, i16 6, i16 7, i16 8, i16 9, i16 10, i16 11, i16 12, i16 13, i16 14, i16 15, i16 16, i16 17, i16 18, i16 19, i16 20, i16 21, i16 22, i16 23, i16 24, i16 25, i16 26, i16 27, i16 28, i16 29, i16 30, i16 31, i16 32, i16 33, i16 34, i16 35, i16 36, i16 37, i16 38, i16 39, i16 40, i16 41, i16 42, i16 43, i16 44, i16 45, i16 46, i16 47, i16 48, i16 49, i16 50, i16 51, i16 52, i16 53, i16 54, i16 55, i16 56, i16 57, i16 58, i16 59, i16 60, i16 61, i16 62, i16 63, i16 64, i16 65, i16 66, i16 67, i16 68, i16 69, i16 70, i16 71, i16 72, i16 73, i16 74, i16 75, i16 76, i16 77, i16 78, i16 79, i16 80, i16 81, i16 82, i16 83, i16 84, i16 85, i16 86, i16 87, i16 88, i16 89, i16 90, i16 91, i16 92, i16 93, i16 94, i16 95, i16 96, i16 97, i16 98, i16 99, i16 100, i16 101, i16 102, i16 103, i16 104, i16 105, i16 106, i16 107, i16 108, i16 109, i16 110, i16 111, i16 112, i16 113, i16 114, i16 115, i16 116, i16 117, i16 118, i16 119, i16 120, i16 121, i16 122, i16 123, i16 124, i16 125, i16 126, i16 127], [128 x i16] zeroinitializer }>, align 16
@charset2lower = internal constant <{ [128 x i8], [128 x i8] }> <{ [128 x i8] c"\00\01\02\03\04\05\06\07\08\09\0A\0B\0C\0D\0E\0F\10\11\12\13\14\15\16\17\18\19\1A\1B\1C\1D\1E\1F !\22#$%&'()*+,-./0123456789:;<=>?@abcdefghijklmnopqrstuvwxyz[\\]^_`abcdefghijklmnopqrstuvwxyz{|}~\7F", [128 x i8] zeroinitializer }>, align 16
@charset2upper = internal constant <{ [128 x i8], [128 x i8] }> <{ [128 x i8] c"\00\01\02\03\04\05\06\07\08\09\0A\0B\0C\0D\0E\0F\10\11\12\13\14\15\16\17\18\19\1A\1B\1C\1D\1E\1F !\22#$%&'()*+,-./0123456789:;<=>?@ABCDEFGHIJKLMNOPQRSTUVWXYZ[\\]^_`ABCDEFGHIJKLMNOPQRSTUVWXYZ{|}~\7F", [128 x i8] zeroinitializer }>, align 16
@llvm.compiler.used = appending global [5 x ptr] [ptr @__UNIQUE_ID___addressable_init_nls_ascii304, ptr @__UNIQUE_ID_file305, ptr @__UNIQUE_ID_license306, ptr @__exitcall_exit_nls_ascii, ptr @exit_nls_ascii], section "llvm.metadata"

; Function Attrs: cold fn_ret_thunk_extern nounwind null_pointer_is_valid optsize
define internal void @exit_nls_ascii() #0 section ".exit.text" align 16 {
  %1 = tail call i32 @unregister_nls(ptr noundef nonnull @table) #4
  ret void
}

; Function Attrs: null_pointer_is_valid
declare dso_local i32 @unregister_nls(ptr noundef) local_unnamed_addr #1

; Function Attrs: cold fn_ret_thunk_extern nounwind null_pointer_is_valid optsize
define internal i32 @init_nls_ascii() #0 section ".init.text" align 16 {
  %1 = tail call i32 @__register_nls(ptr noundef nonnull @table, ptr noundef null) #4
  ret i32 %1
}

; Function Attrs: fn_ret_thunk_extern mustprogress nofree norecurse nosync nounwind null_pointer_is_valid willreturn memory(read, argmem: readwrite, inaccessiblemem: none)
define internal noundef i32 @uni2char(i16 noundef zeroext %0, ptr nocapture noundef writeonly %1, i32 noundef %2) #2 align 16 {
  %4 = icmp slt i32 %2, 1
  br i1 %4, label %18, label %5

5:                                                ; preds = %3
  %6 = lshr i16 %0, 8
  %7 = zext nneg i16 %6 to i64
  %8 = getelementptr [256 x ptr], ptr @page_uni2charset, i64 0, i64 %7
  %9 = load ptr, ptr %8, align 8
  %10 = icmp eq ptr %9, null
  br i1 %10, label %18, label %11

11:                                               ; preds = %5
  %12 = and i16 %0, 255
  %13 = zext nneg i16 %12 to i64
  %14 = getelementptr i8, ptr %9, i64 %13
  %15 = load i8, ptr %14, align 1
  %16 = icmp eq i8 %15, 0
  br i1 %16, label %18, label %17

17:                                               ; preds = %11
  store i8 %15, ptr %1, align 1
  br label %18

18:                                               ; preds = %17, %11, %5, %3
  %19 = phi i32 [ 1, %17 ], [ -36, %3 ], [ -22, %11 ], [ -22, %5 ]
  ret i32 %19
}

; Function Attrs: fn_ret_thunk_extern mustprogress nofree norecurse nosync nounwind null_pointer_is_valid willreturn memory(argmem: readwrite)
define internal i32 @char2uni(ptr nocapture noundef readonly %0, i32 %1, ptr nocapture noundef writeonly %2) #3 align 16 {
  %4 = load i8, ptr %0, align 1
  %5 = zext i8 %4 to i64
  %6 = getelementptr [256 x i16], ptr @charset2uni, i64 0, i64 %5
  %7 = load i16, ptr %6, align 2
  store i16 %7, ptr %2, align 2
  %8 = icmp eq i16 %7, 0
  %9 = select i1 %8, i32 -22, i32 1
  ret i32 %9
}

; Function Attrs: null_pointer_is_valid
declare dso_local i32 @__register_nls(ptr noundef, ptr noundef) local_unnamed_addr #1


!llvm.module.flags = !{!0, !1, !2, !3, !4}

!0 = !{i32 1, !"wchar_size", i32 2}
!1 = !{i32 8, !"cf-protection-branch", i32 1}
!2 = !{i32 4, !"function_return_thunk_extern", i32 1}
!3 = !{i32 4, !"indirect_branch_cs_prefix", i32 1}
!4 = !{i32 4, !"SkipRaxSetup", i32 1}
